ccopy_reg
_reconstructor
p1
(cpsychopy.data
ExperimentHandler
p2
c__builtin__
object
p3
NtRp4
(dp5
S'originPath'
p6
VC:\u005cUsers\u005cMartha\u005cDesktop\u005cNadia\u005ccursos\u005cInstrumentos\u005cProyectoFinal\u005cPsychopy\u005cSIGDET\u005cSIGDET.psyexp
p7
sS'dataFileName'
p8
VC:\u005cUsers\u005cMartha\u005cDesktop\u005cNadia\u005ccursos\u005cInstrumentos\u005cProyectoFinal\u005cPsychopy\u005cSIGDET\u005cdata/test}_SIGDET_2016_oct._16_0830
p9
sS'runtimeInfo'
p10
NsS'name'
p11
S'SIGDET'
p12
sS'dataNames'
p13
(lp14
S'End.keys'
p15
aS'End.rt'
p16
aS'key_resp_2.keys'
p17
aS'key_resp_2.rt'
p18
aS'key_resp_3.keys'
p19
aS'key_resp_3.rt'
p20
aS'response.keys'
p21
aS'response.corr'
p22
asS'autoLog'
p23
I01
sS'extraInfo'
p24
(dp25
S'date'
p26
V2016_oct._16_0830
p27
sS'frameRate'
p28
cnumpy.core.multiarray
scalar
p29
(cnumpy
dtype
p30
(S'f8'
I0
I1
tRp31
(I3
S'<'
NNNI-1
I-1
I0
tbS'\x98\x1eVn\x91\x07N@'
tRp32
sS'expName'
p33
g12
sVsession
p34
V001
p35
sVparticipant
p36
Vtest}
p37
ssS'loopsUnfinished'
p38
(lp39
g1
(cpsychopy.data
TrialHandler
p40
g3
NtRp41
(dp42
S'origin'
p43
NsS'thisTrial'
p44
g1
(cpsychopy.data
TrialType
p45
c__builtin__
dict
p46
(dp47
VcorAns
p48
Vm
sVStim
p49
VC:\u005cUsers\u005cMartha\u005cDesktop\u005cNadia\u005ccursos\u005cInstrumentos\u005cProyectoFinal\u005cPsychopy\u005cSIGDET\u005ccaras\u005cshort_mouth.bmp
p50
stRp51
sS'_exp'
p52
I402470736
sg11
S'trials'
p53
sg6
I-1
sS'thisRepN'
p54
I0
sg23
I01
sg24
g25
sS'data'
p55
g1
(cpsychopy.data
DataHandler
p56
g46
(dp57
S'ran'
p58
cnumpy.ma.core
_mareconstruct
p59
(cnumpy.ma.core
MaskedArray
p60
cnumpy
ndarray
p61
(I0
tp62
S'b'
tRp63
(I1
(I2
I2
tg30
(S'f4'
I0
I1
tRp64
(I3
S'<'
NNNI-1
I-1
I0
tbI00
S'\x00\x00\x80?\x00\x00\x00\x00\x00\x00\x80?\x00\x00\x00\x00'
S'\x00\x00\x00\x00'
Ntbsg22
g59
(g60
g61
g62
S'b'
tRp65
(I1
(I2
I2
tg64
I00
S'\x00\x00\x00\x00\x00\x00\x00\x00\x00\x00\x00\x00\x00\x00\x00\x00'
S'\x00\x01\x01\x01'
Ntbsg21
cnumpy.core.multiarray
_reconstruct
p66
(g61
(I0
tS'b'
tRp67
(I1
(I2
I2
tg30
(S'O4'
I0
I1
tRp68
(I3
S'|'
NNNI-1
I-1
I63
tbI00
(lp69
NaS'--'
p70
aS'--'
p71
aS'--'
p72
atbsS'order'
p73
g59
(g60
g61
g62
S'b'
tRp74
(I1
(I2
I2
tg64
I00
S'\x00\x00\x00\x00\x00\x00\x00\x00\x00\x00\x80?\x00\x00\x00\x00'
S'\x00\x01\x00\x01'
NtbstRp75
(dp76
S'isNumeric'
p77
(dp78
g58
I01
sg22
I01
sg21
I00
sg73
I01
ssg53
g41
sS'dataTypes'
p79
(lp80
g58
ag73
ag21
ag22
asS'dataShape'
p81
(lp82
I2
aI2
asbsS'method'
p83
S'random'
p84
sS'sequenceIndices'
p85
g66
(g61
(I0
tS'b'
tRp86
(I1
(I2
I2
tg30
(S'i4'
I0
I1
tRp87
(I3
S'<'
NNNI-1
I-1
I0
tbI01
S'\x00\x00\x00\x00\x01\x00\x00\x00\x00\x00\x00\x00\x01\x00\x00\x00'
tbsS'finished'
p88
I00
sS'nReps'
p89
I2
sS'nRemaining'
p90
I2
sS'trialList'
p91
(lp92
g1
(g45
g46
(dp93
g48
Vv
sg49
VC:\u005cUsers\u005cMartha\u005cDesktop\u005cNadia\u005ccursos\u005cInstrumentos\u005cProyectoFinal\u005cPsychopy\u005cSIGDET\u005ccaras\u005clong_mouth.bmp
p94
stRp95
ag51
asS'seed'
p96
NsS'thisIndex'
p97
g29
(g87
S'\x01\x00\x00\x00'
tRp98
sS'thisN'
p99
I1
sS'thisTrialN'
p100
I1
sS'nTotal'
p101
I4
sbasS'saveWideText'
p102
I00
sS'thisEntry'
p103
(dp104
sS'version'
p105
S''
sS'_paramNamesSoFar'
p106
(lp107
g48
ag49
asS'entries'
p108
(lp109
(dp110
g34
g35
sg33
g12
sg15
S'return'
p111
sg36
g37
sg26
g27
sg16
F0.00031218701042234898
sg28
g32
sa(dp112
g34
g35
sg18
F0.8965801409794949
sg33
g12
sg36
g37
sg26
g27
sg28
g32
sg17
S'return'
p113
sa(dp114
g34
g35
sg33
g12
sg36
g37
sg26
g27
sg19
S'return'
p115
sg28
g32
sg20
F0.93276988569414243
sa(dp116
g34
g35
sS'trials.thisIndex'
p117
g29
(g87
S'\x00\x00\x00\x00'
tRp118
sg49
g94
sg21
NsS'trials.thisRepN'
p119
I0
sg28
g32
sg48
Vv
sS'trials.thisN'
p120
I0
sg22
I0
sg33
g12
sS'trials.thisTrialN'
p121
I0
sg26
g27
sg36
g37
sasS'loops'
p122
(lp123
g41
asS'savePickle'
p124
I00
sb.